target datalayout = "e-m:e-p270:32:32-p271:32:32-p272:64:64-i64:64-i128:128-f80:128-n8:16:32:64-S128"
target triple = "x86_64-pc-linux-gnu"

%struct.raxNode = type { i32, [0 x i8] }

@.str.7 = private unnamed_addr constant [9 x i8] c"%c%.*s%c\00", align 1
@.str.8 = private unnamed_addr constant [4 x i8] c"=%p\00", align 1
@.str.9 = private unnamed_addr constant [9 x i8] c" `-(%c) \00", align 1
@.str.10 = private unnamed_addr constant [2 x i8] c"\0A\00", align 1
@.str.11 = private unnamed_addr constant [5 x i8] c" -> \00", align 1
@stdout = external global ptr, align 8

; Function Attrs: inlinehint nounwind uwtable
define available_externally i32 @putchar(i32 noundef %0) #8 {
  %2 = alloca i32, align 4
  store i32 %0, ptr %2, align 4, !tbaa !5
  %3 = load i32, ptr %2, align 4, !tbaa !5
  %4 = load ptr, ptr @stdout, align 8, !tbaa !63
  %5 = call i32 @putc(i32 noundef %3, ptr noundef %4)
  ret i32 %5
}

; Function Attrs: nounwind uwtable
define dso_local ptr @raxGetData(ptr noundef %0) #0 {
  %2 = alloca ptr, align 8
  %3 = alloca ptr, align 8
  %4 = alloca ptr, align 8
  %5 = alloca ptr, align 8
  store ptr %0, ptr %3, align 8, !tbaa !11
  %6 = load ptr, ptr %3, align 8, !tbaa !11
  %7 = load i32, ptr %6, align 4
  %8 = lshr i32 %7, 1
  %9 = and i32 %8, 1
  %10 = icmp ne i32 %9, 0
  br i1 %10, label %11, label %12

11:                                               ; preds = %1
  store ptr null, ptr %2, align 8
  br label %64

12:                                               ; preds = %1
  call void @llvm.lifetime.start.p0(i64 8, ptr %4) #13
  %13 = load ptr, ptr %3, align 8, !tbaa !11
  %14 = load ptr, ptr %3, align 8, !tbaa !11
  %15 = load i32, ptr %14, align 4
  %16 = lshr i32 %15, 3
  %17 = zext i32 %16 to i64
  %18 = add i64 4, %17
  %19 = load ptr, ptr %3, align 8, !tbaa !11
  %20 = load i32, ptr %19, align 4
  %21 = lshr i32 %20, 3
  %22 = add nsw i32 %21, 4
  %23 = sext i32 %22 to i64
  %24 = urem i64 %23, 8
  %25 = sub i64 8, %24
  %26 = and i64 %25, 7
  %27 = add i64 %18, %26
  %28 = load ptr, ptr %3, align 8, !tbaa !11
  %29 = load i32, ptr %28, align 4
  %30 = lshr i32 %29, 2
  %31 = and i32 %30, 1
  %32 = icmp ne i32 %31, 0
  br i1 %32, label %33, label %34

33:                                               ; preds = %12
  br label %40

34:                                               ; preds = %12
  %35 = load ptr, ptr %3, align 8, !tbaa !11
  %36 = load i32, ptr %35, align 4
  %37 = lshr i32 %36, 3
  %38 = zext i32 %37 to i64
  %39 = mul i64 8, %38
  br label %40

40:                                               ; preds = %34, %33
  %41 = phi i64 [ 8, %33 ], [ %39, %34 ]
  %42 = add i64 %27, %41
  %43 = load ptr, ptr %3, align 8, !tbaa !11
  %44 = load i32, ptr %43, align 4
  %45 = and i32 %44, 1
  %46 = icmp ne i32 %45, 0
  br i1 %46, label %47, label %54

47:                                               ; preds = %40
  %48 = load ptr, ptr %3, align 8, !tbaa !11
  %49 = load i32, ptr %48, align 4
  %50 = lshr i32 %49, 1
  %51 = and i32 %50, 1
  %52 = icmp ne i32 %51, 0
  %53 = xor i1 %52, true
  br label %54

54:                                               ; preds = %47, %40
  %55 = phi i1 [ false, %40 ], [ %53, %47 ]
  %56 = zext i1 %55 to i32
  %57 = sext i32 %56 to i64
  %58 = mul i64 %57, 8
  %59 = add i64 %42, %58
  %60 = getelementptr inbounds nuw i8, ptr %13, i64 %59
  %61 = getelementptr inbounds i8, ptr %60, i64 -8
  store ptr %61, ptr %4, align 8, !tbaa !16
  call void @llvm.lifetime.start.p0(i64 8, ptr %5) #13
  %62 = load ptr, ptr %4, align 8, !tbaa !16
  call void @llvm.memcpy.p0.p0.i64(ptr align 8 %5, ptr align 8 %62, i64 8, i1 false)
  %63 = load ptr, ptr %5, align 8, !tbaa !16
  store ptr %63, ptr %2, align 8
  call void @llvm.lifetime.end.p0(i64 8, ptr %5) #13
  call void @llvm.lifetime.end.p0(i64 8, ptr %4) #13
  br label %64

64:                                               ; preds = %54, %11
  %65 = load ptr, ptr %2, align 8
  ret ptr %65
}

; Function Attrs: nounwind uwtable
define dso_local void @raxRecursiveShow(i32 noundef %0, i32 noundef %1, ptr noundef %2) #0 {
  %4 = alloca i32, align 4
  %5 = alloca i32, align 4
  %6 = alloca ptr, align 8
  %7 = alloca i8, align 1
  %8 = alloca i8, align 1
  %9 = alloca i32, align 4
  %10 = alloca i32, align 4
  %11 = alloca ptr, align 8
  %12 = alloca i32, align 4
  %13 = alloca i32, align 4
  %14 = alloca ptr, align 8
  %15 = alloca i32, align 4
  %16 = alloca ptr, align 8
  store i32 %0, ptr %4, align 4, !tbaa !5
  store i32 %1, ptr %5, align 4, !tbaa !5
  store ptr %2, ptr %6, align 8, !tbaa !11
  call void @llvm.lifetime.start.p0(i64 1, ptr %7) #13
  %17 = load ptr, ptr %6, align 8, !tbaa !11
  %18 = load i32, ptr %17, align 4
  %19 = lshr i32 %18, 2
  %20 = and i32 %19, 1
  %21 = icmp ne i32 %20, 0
  %22 = select i1 %21, i32 34, i32 91
  %23 = trunc i32 %22 to i8
  store i8 %23, ptr %7, align 1, !tbaa !17
  call void @llvm.lifetime.start.p0(i64 1, ptr %8) #13
  %24 = load ptr, ptr %6, align 8, !tbaa !11
  %25 = load i32, ptr %24, align 4
  %26 = lshr i32 %25, 2
  %27 = and i32 %26, 1
  %28 = icmp ne i32 %27, 0
  %29 = select i1 %28, i32 34, i32 93
  %30 = trunc i32 %29 to i8
  store i8 %30, ptr %8, align 1, !tbaa !17
  call void @llvm.lifetime.start.p0(i64 4, ptr %9) #13
  %31 = load i8, ptr %7, align 1, !tbaa !17
  %32 = sext i8 %31 to i32
  %33 = load ptr, ptr %6, align 8, !tbaa !11
  %34 = load i32, ptr %33, align 4
  %35 = lshr i32 %34, 3
  %36 = load ptr, ptr %6, align 8, !tbaa !11
  %37 = getelementptr inbounds nuw %struct.raxNode, ptr %36, i32 0, i32 1
  %38 = getelementptr inbounds [0 x i8], ptr %37, i64 0, i64 0
  %39 = load i8, ptr %8, align 1, !tbaa !17
  %40 = sext i8 %39 to i32
  %41 = call i32 (ptr, ...) @printf(ptr noundef @.str.7, i32 noundef %32, i32 noundef %35, ptr noundef %38, i32 noundef %40)
  store i32 %41, ptr %9, align 4, !tbaa !5
  %42 = load ptr, ptr %6, align 8, !tbaa !11
  %43 = load i32, ptr %42, align 4
  %44 = and i32 %43, 1
  %45 = icmp ne i32 %44, 0
  br i1 %45, label %46, label %52

46:                                               ; preds = %3
  %47 = load ptr, ptr %6, align 8, !tbaa !11
  %48 = call ptr @raxGetData(ptr noundef %47)
  %49 = call i32 (ptr, ...) @printf(ptr noundef @.str.8, ptr noundef %48)
  %50 = load i32, ptr %9, align 4, !tbaa !5
  %51 = add nsw i32 %50, %49
  store i32 %51, ptr %9, align 4, !tbaa !5
  br label %52

52:                                               ; preds = %46, %3
  call void @llvm.lifetime.start.p0(i64 4, ptr %10) #13
  %53 = load ptr, ptr %6, align 8, !tbaa !11
  %54 = load i32, ptr %53, align 4
  %55 = lshr i32 %54, 2
  %56 = and i32 %55, 1
  %57 = icmp ne i32 %56, 0
  br i1 %57, label %58, label %59

58:                                               ; preds = %52
  br label %63

59:                                               ; preds = %52
  %60 = load ptr, ptr %6, align 8, !tbaa !11
  %61 = load i32, ptr %60, align 4
  %62 = lshr i32 %61, 3
  br label %63

63:                                               ; preds = %59, %58
  %64 = phi i32 [ 1, %58 ], [ %62, %59 ]
  store i32 %64, ptr %10, align 4, !tbaa !5
  %65 = load i32, ptr %4, align 4, !tbaa !5
  %66 = icmp ne i32 %65, 0
  br i1 %66, label %67, label %80

67:                                               ; preds = %63
  %68 = load i32, ptr %10, align 4, !tbaa !5
  %69 = icmp sgt i32 %68, 1
  %70 = select i1 %69, i32 7, i32 4
  %71 = load i32, ptr %5, align 4, !tbaa !5
  %72 = add nsw i32 %71, %70
  store i32 %72, ptr %5, align 4, !tbaa !5
  %73 = load i32, ptr %10, align 4, !tbaa !5
  %74 = icmp eq i32 %73, 1
  br i1 %74, label %75, label %79

75:                                               ; preds = %67
  %76 = load i32, ptr %9, align 4, !tbaa !5
  %77 = load i32, ptr %5, align 4, !tbaa !5
  %78 = add nsw i32 %77, %76
  store i32 %78, ptr %5, align 4, !tbaa !5
  br label %79

79:                                               ; preds = %75, %67
  br label %80

80:                                               ; preds = %79, %63
  call void @llvm.lifetime.start.p0(i64 8, ptr %11) #13
  %81 = load ptr, ptr %6, align 8, !tbaa !11
  %82 = getelementptr inbounds nuw %struct.raxNode, ptr %81, i32 0, i32 1
  %83 = getelementptr inbounds [0 x i8], ptr %82, i64 0, i64 0
  %84 = load ptr, ptr %6, align 8, !tbaa !11
  %85 = load i32, ptr %84, align 4
  %86 = lshr i32 %85, 3
  %87 = sext i32 %86 to i64
  %88 = getelementptr inbounds i8, ptr %83, i64 %87
  %89 = load ptr, ptr %6, align 8, !tbaa !11
  %90 = load i32, ptr %89, align 4
  %91 = lshr i32 %90, 3
  %92 = add nsw i32 %91, 4
  %93 = sext i32 %92 to i64
  %94 = urem i64 %93, 8
  %95 = sub i64 8, %94
  %96 = and i64 %95, 7
  %97 = getelementptr inbounds nuw i8, ptr %88, i64 %96
  store ptr %97, ptr %11, align 8, !tbaa !18
  call void @llvm.lifetime.start.p0(i64 4, ptr %12) #13
  store i32 0, ptr %12, align 4, !tbaa !5
  br label %98

98:                                               ; preds = %138, %80
  %99 = load i32, ptr %12, align 4, !tbaa !5
  %100 = load i32, ptr %10, align 4, !tbaa !5
  %101 = icmp slt i32 %99, %100
  br i1 %101, label %103, label %102

102:                                              ; preds = %98
  store i32 2, ptr %13, align 4
  call void @llvm.lifetime.end.p0(i64 4, ptr %12) #13
  br label %141

103:                                              ; preds = %98
  call void @llvm.lifetime.start.p0(i64 8, ptr %14) #13
  store ptr @.str.9, ptr %14, align 8, !tbaa !24
  %104 = load i32, ptr %10, align 4, !tbaa !5
  %105 = icmp sgt i32 %104, 1
  br i1 %105, label %106, label %128

106:                                              ; preds = %103
  %107 = call i32 (ptr, ...) @printf(ptr noundef @.str.10)
  call void @llvm.lifetime.start.p0(i64 4, ptr %15) #13
  store i32 0, ptr %15, align 4, !tbaa !5
  br label %108

108:                                              ; preds = %115, %106
  %109 = load i32, ptr %15, align 4, !tbaa !5
  %110 = load i32, ptr %5, align 4, !tbaa !5
  %111 = icmp slt i32 %109, %110
  br i1 %111, label %113, label %112

112:                                              ; preds = %108
  store i32 5, ptr %13, align 4
  call void @llvm.lifetime.end.p0(i64 4, ptr %15) #13
  br label %118

113:                                              ; preds = %108
  %114 = call i32 @putchar(i32 noundef 32)
  br label %115

115:                                              ; preds = %113
  %116 = load i32, ptr %15, align 4, !tbaa !5
  %117 = add nsw i32 %116, 1
  store i32 %117, ptr %15, align 4, !tbaa !5
  br label %108, !llvm.loop !61

118:                                              ; preds = %112
  %119 = load ptr, ptr %14, align 8, !tbaa !24
  %120 = load ptr, ptr %6, align 8, !tbaa !11
  %121 = getelementptr inbounds nuw %struct.raxNode, ptr %120, i32 0, i32 1
  %122 = load i32, ptr %12, align 4, !tbaa !5
  %123 = sext i32 %122 to i64
  %124 = getelementptr inbounds [0 x i8], ptr %121, i64 0, i64 %123
  %125 = load i8, ptr %124, align 1, !tbaa !17
  %126 = zext i8 %125 to i32
  %127 = call i32 (ptr, ...) @printf(ptr noundef %119, i32 noundef %126)
  br label %130

128:                                              ; preds = %103
  %129 = call i32 (ptr, ...) @printf(ptr noundef @.str.11)
  br label %130

130:                                              ; preds = %128, %118
  call void @llvm.lifetime.start.p0(i64 8, ptr %16) #13
  %131 = load ptr, ptr %11, align 8, !tbaa !18
  call void @llvm.memcpy.p0.p0.i64(ptr align 8 %16, ptr align 8 %131, i64 8, i1 false)
  %132 = load i32, ptr %4, align 4, !tbaa !5
  %133 = add nsw i32 %132, 1
  %134 = load i32, ptr %5, align 4, !tbaa !5
  %135 = load ptr, ptr %16, align 8, !tbaa !11
  call void @raxRecursiveShow(i32 noundef %133, i32 noundef %134, ptr noundef %135)
  %136 = load ptr, ptr %11, align 8, !tbaa !18
  %137 = getelementptr inbounds nuw ptr, ptr %136, i32 1
  store ptr %137, ptr %11, align 8, !tbaa !18
  call void @llvm.lifetime.end.p0(i64 8, ptr %16) #13
  call void @llvm.lifetime.end.p0(i64 8, ptr %14) #13
  br label %138

138:                                              ; preds = %130
  %139 = load i32, ptr %12, align 4, !tbaa !5
  %140 = add nsw i32 %139, 1
  store i32 %140, ptr %12, align 4, !tbaa !5
  br label %98, !llvm.loop !62

141:                                              ; preds = %102
  call void @llvm.lifetime.end.p0(i64 8, ptr %11) #13
  call void @llvm.lifetime.end.p0(i64 4, ptr %10) #13
  call void @llvm.lifetime.end.p0(i64 4, ptr %9) #13
  call void @llvm.lifetime.end.p0(i64 1, ptr %8) #13
  call void @llvm.lifetime.end.p0(i64 1, ptr %7) #13
  ret void
}